c__builtin__
set
p0
((lp1
(VB00DQD9F18
p2
VB00FAZ5P3M
p3
tp4
a(VB009NU9ZTA
p5
VB00C3164HC
p6
tp7
a(g6
VB00FF17OQW
p8
tp9
a(VB009RAXT66
p10
VB00C309KAG
p11
tp12
a(g5
VB00DMXEM74
p13
tp14
a(g6
g11
tp15
a(g2
g8
tp16
a(g2
g11
tp17
a(g13
VB00C3165R6
p18
tp19
a(g6
g18
tp20
a(g18
g6
tp21
a(g18
g2
tp22
a(g6
VB00GTVCQI8
p23
tp24
a(g6
g3
tp25
a(g10
g3
tp26
a(g13
g2
tp27
a(g11
g23
tp28
a(g13
g3
tp29
a(g11
g8
tp30
a(g11
g3
tp31
a(g11
g2
tp32
a(g5
g11
tp33
a(g23
g13
tp34
a(g11
g18
tp35
a(g8
g11
tp36
a(g3
g23
tp37
a(g3
g2
tp38
a(g2
g13
tp39
a(g11
g13
tp40
a(g5
g23
tp41
a(g18
g11
tp42
a(g2
g18
tp43
a(g3
g6
tp44
a(g2
g6
tp45
a(g8
g6
tp46
a(g18
g13
tp47
a(g10
g8
tp48
a(g13
g11
tp49
a(g8
g2
tp50
a(g18
g23
tp51
a(g6
g2
tp52
a(g11
g10
tp53
a(g8
g3
tp54
a(g3
g10
tp55
a(g10
g6
tp56
a(g8
g13
tp57
a(g3
g8
tp58
a(g3
g11
tp59
a(g5
g3
tp60
a(g8
g10
tp61
a(g2
g23
tp62
a(g6
g13
tp63
a(g10
g23
tp64
a(g23
g8
tp65
a(g11
g6
tp66
a(g18
g8
tp67
a(g3
g13
tp68
a(g13
g23
tp69
a(g8
g23
tp70
a(g23
g11
tp71
a(g13
g8
tp72
a(g3
g18
tp73
a(g13
g6
tp74
a(g23
g6
tp75
a(g23
g3
tp76
a(g10
g13
tp77
a(g18
g3
tp78
atp79
Rp80
.