c__builtin__
set
p0
((lp1
(VB00DMXEM74
p2
VB009NU9ZTA
p3
tp4
a(VB00C3165R6
p5
g3
tp6
a(VB009RAXT66
p7
VB00DQD9F18
p8
tp9
a(VB00GTVCQI8
p10
g3
tp11
a(VB00FAZ5P3M
p12
g3
tp13
a(g3
g8
tp14
a(g10
g8
tp15
a(g7
g3
tp16
a(g3
g7
tp17
a(g8
g7
tp18
a(g10
g5
tp19
a(VB00C3164HC
p20
g7
tp21
a(VB00FF17OQW
p22
g3
tp23
a(g3
g22
tp24
a(g20
g3
tp25
a(g8
g3
tp26
a(VB00C309KAG
p27
g3
tp28
a(g22
g5
tp29
a(g2
g7
tp30
a(g10
g7
tp31
a(g3
g5
tp32
a(g7
g5
tp33
a(g5
g7
tp34
atp35
Rp36
.