c__builtin__
set
p0
((lp1
c__builtin__
frozenset
p2
((lp3
VB00FAZ5P3M
p4
aVB00C3165R6
p5
aVB00C3164HC
p6
aVB00FF17OQW
p7
aVB00DQD9F18
p8
aVB00C309KAG
p9
aVB00GTVCQI8
p10
atp11
Rp12
ag2
((lp13
g4
ag10
ag6
ag7
aVB00DMXEM74
p14
ag9
aVB009RAXT66
p15
atp16
Rp17
ag2
((lp18
g6
ag7
ag14
ag8
ag9
ag10
atp19
Rp20
ag2
((lp21
g14
ag4
ag5
ag8
atp22
Rp23
ag2
((lp24
g14
ag4
ag7
ag10
ag8
atp25
Rp26
ag2
((lp27
g4
ag8
ag6
ag7
atp28
Rp29
ag2
((lp30
g14
ag9
ag5
ag6
ag7
atp31
Rp32
ag2
((lp33
g4
ag5
ag6
ag7
ag14
ag8
ag9
atp34
Rp35
ag2
((lp36
g4
ag10
ag6
ag7
ag8
ag9
ag15
atp37
Rp38
ag2
((lp39
g4
ag5
ag6
ag14
ag8
ag9
ag10
atp40
Rp41
ag2
((lp42
g4
ag9
aVB009NU9ZTA
p43
ag6
atp44
Rp45
ag2
((lp46
g14
ag9
ag6
ag10
ag7
atp47
Rp48
ag2
((lp49
g4
ag6
ag7
ag14
ag8
ag9
ag10
atp50
Rp51
ag2
((lp52
g4
ag5
ag10
ag7
ag14
ag9
ag15
atp53
Rp54
ag2
((lp55
g4
ag8
ag9
ag10
ag6
atp56
Rp57
ag2
((lp58
g4
ag14
ag9
ag43
atp59
Rp60
ag2
((lp61
g4
ag5
ag6
ag7
ag14
ag8
atp62
Rp63
ag2
((lp64
g14
ag8
ag9
ag5
ag7
atp65
Rp66
ag2
((lp67
g4
ag5
ag10
ag6
ag14
ag15
atp68
Rp69
ag2
((lp70
g4
ag14
ag9
ag6
ag15
atp71
Rp72
ag2
((lp73
g14
ag9
ag6
ag10
ag15
atp74
Rp75
ag2
((lp76
g4
ag5
ag7
ag14
ag8
ag9
ag10
atp77
Rp78
ag2
((lp79
g14
ag15
ag6
ag7
atp80
Rp81
ag2
((lp82
g4
ag8
ag15
ag10
ag7
atp83
Rp84
ag2
((lp85
g14
ag4
ag5
ag10
ag7
atp86
Rp87
ag2
((lp88
g4
ag6
ag7
ag14
ag9
ag10
atp89
Rp90
ag2
((lp91
g14
ag4
ag9
ag10
atp92
Rp93
ag2
((lp94
g4
ag5
ag6
ag7
ag14
ag8
ag10
atp95
Rp96
ag2
((lp97
g14
ag4
ag9
ag10
ag7
atp98
Rp99
ag2
((lp100
g14
ag4
ag6
ag10
ag7
atp101
Rp102
ag2
((lp103
g4
ag9
ag5
ag7
atp104
Rp105
ag2
((lp106
g4
ag10
ag6
ag15
atp107
Rp108
ag2
((lp109
g14
ag4
ag6
ag10
atp110
Rp111
ag2
((lp112
g5
ag6
ag7
ag14
ag8
ag10
atp113
Rp114
ag2
((lp115
g8
ag9
ag6
ag7
atp116
Rp117
ag2
((lp118
g14
ag9
ag43
ag10
atp119
Rp120
ag2
((lp121
g5
ag6
ag7
ag14
ag9
ag10
atp122
Rp123
ag2
((lp124
g6
ag43
ag9
ag10
atp125
Rp126
ag2
((lp127
g6
ag7
ag14
ag9
ag15
ag4
ag8
ag10
atp128
Rp129
ag2
((lp130
g4
ag9
ag5
ag6
atp131
Rp132
ag2
((lp133
g4
ag8
ag9
ag6
atp134
Rp135
ag2
((lp136
g14
ag9
ag10
ag15
atp137
Rp138
ag2
((lp139
g4
ag5
ag6
ag7
ag8
ag9
ag15
atp140
Rp141
ag2
((lp142
g6
ag7
ag14
ag9
ag15
ag5
ag8
ag10
atp143
Rp144
ag2
((lp145
g4
ag10
ag7
ag14
ag8
ag15
atp146
Rp147
ag2
((lp148
g8
ag9
ag5
ag6
ag15
atp149
Rp150
ag2
((lp151
g4
ag5
ag6
ag7
ag14
ag9
atp152
Rp153
ag2
((lp154
g4
ag43
ag10
ag9
ag6
atp155
Rp156
ag2
((lp157
g4
ag6
ag10
ag7
atp158
Rp159
ag2
((lp160
g6
ag7
ag14
ag9
ag15
ag4
ag5
ag8
ag10
atp161
Rp162
ag2
((lp163
g6
ag7
ag14
ag9
ag4
ag5
ag8
ag10
atp164
Rp165
ag2
((lp166
g8
ag9
ag5
ag7
atp167
Rp168
ag2
((lp169
g4
ag9
ag5
ag6
ag7
atp170
Rp171
ag2
((lp172
g14
ag4
ag9
ag6
ag10
atp173
Rp174
ag2
((lp175
g14
ag4
ag10
ag6
ag8
atp176
Rp177
ag2
((lp178
g4
ag5
ag6
ag7
ag8
ag9
atp179
Rp180
ag2
((lp181
g4
ag14
ag9
ag15
ag7
atp182
Rp183
ag2
((lp184
g8
ag9
ag5
ag15
atp185
Rp186
ag2
((lp187
g4
ag14
ag9
ag6
ag7
atp188
Rp189
ag2
((lp190
g4
ag5
ag15
ag7
atp191
Rp192
ag2
((lp193
g4
ag10
ag7
ag14
ag9
ag15
atp194
Rp195
ag2
((lp196
g14
ag8
ag9
ag5
ag6
atp197
Rp198
ag2
((lp199
g9
ag6
ag15
ag7
atp200
Rp201
ag2
((lp202
g7
ag14
ag9
ag15
ag4
ag5
ag8
ag10
atp203
Rp204
ag2
((lp205
g4
ag5
ag6
ag14
ag8
ag9
atp206
Rp207
ag2
((lp208
g8
ag9
ag6
ag10
atp209
Rp210
ag2
((lp211
g14
ag4
ag9
ag43
ag10
atp212
Rp213
ag2
((lp214
g10
ag15
ag6
ag7
atp215
Rp216
ag2
((lp217
g14
ag8
ag5
ag10
ag6
atp218
Rp219
ag2
((lp220
g4
ag8
ag14
ag7
atp221
Rp222
ag2
((lp223
g4
ag10
ag6
ag7
ag14
ag15
atp224
Rp225
ag2
((lp226
g14
ag8
ag10
ag7
atp227
Rp228
ag2
((lp229
g4
ag6
ag15
ag7
atp230
Rp231
ag2
((lp232
g4
ag6
ag7
ag14
ag9
ag15
atp233
Rp234
ag2
((lp235
g4
ag8
ag10
ag7
atp236
Rp237
ag2
((lp238
g14
ag8
ag4
ag15
ag7
atp239
Rp240
ag2
((lp241
g4
ag43
ag10
ag6
atp242
Rp243
ag2
((lp244
g4
ag10
ag14
ag8
ag9
ag15
atp245
Rp246
ag2
((lp247
g9
ag5
ag10
ag7
atp248
Rp249
ag2
((lp250
g14
ag9
ag6
ag10
atp251
Rp252
ag2
((lp253
g4
ag5
ag6
ag14
ag9
ag10
atp254
Rp255
ag2
((lp256
g4
ag10
ag6
ag7
ag9
ag15
atp257
Rp258
ag2
((lp259
g8
ag9
ag5
ag10
atp260
Rp261
ag2
((lp262
g4
ag9
ag10
ag15
atp263
Rp264
ag2
((lp265
g4
ag5
ag6
ag7
ag14
ag9
ag10
atp266
Rp267
ag2
((lp268
g8
ag15
ag6
ag7
atp269
Rp270
ag2
((lp271
g4
ag15
ag10
ag7
atp272
Rp273
ag2
((lp274
g5
ag6
ag7
ag14
ag8
ag9
atp275
Rp276
ag2
((lp277
g14
ag9
ag10
ag7
atp278
Rp279
ag2
((lp280
g5
ag6
ag7
ag14
ag8
ag9
ag10
atp281
Rp282
ag2
((lp283
g4
ag7
ag14
ag8
ag9
ag10
atp284
Rp285
ag2
((lp286
g4
ag9
ag43
ag10
atp287
Rp288
ag2
((lp289
g4
ag14
ag6
ag7
atp290
Rp291
ag2
((lp292
g4
ag9
ag6
ag10
ag7
atp293
Rp294
ag2
((lp295
g4
ag8
ag9
ag10
ag7
atp296
Rp297
ag2
((lp298
g9
ag6
ag10
ag7
atp299
Rp300
ag2
((lp301
g4
ag5
ag6
ag7
ag9
ag10
atp302
Rp303
ag2
((lp304
g14
ag4
ag9
ag43
ag6
atp305
Rp306
ag2
((lp307
g4
ag43
ag6
ag14
ag9
ag10
atp308
Rp309
ag2
((lp310
g14
ag8
ag5
ag7
atp311
Rp312
atp313
Rp314
.