c__builtin__
set
p1
((lp2
c__builtin__
frozenset
p3
((lp4
VB00DMXEM74
p5
aVB00FAZ5P3M
p6
aVB00C309KAG
p7
aVB00GTVCQI8
p8
aVB00FF17OQW
p9
atRp10
ag3
((lp11
VB00C3164HC
p12
ag9
ag5
ag7
aVB009RAXT66
p13
ag6
ag8
atRp14
ag3
((lp15
g12
ag9
ag5
ag13
ag6
aVB00C3165R6
p16
aVB00DQD9F18
p17
ag8
atRp18
ag3
((lp19
g6
ag12
ag8
atRp20
ag3
((lp21
g17
ag7
ag16
ag12
ag8
atRp22
ag3
((lp23
g6
ag16
ag12
ag8
ag9
atRp24
ag3
((lp25
g17
ag16
ag12
ag8
ag9
atRp26
ag3
((lp27
g12
ag9
ag7
ag13
ag6
ag16
ag17
ag8
atRp28
ag3
((lp29
g6
ag17
ag8
atRp30
ag3
((lp31
g5
ag6
ag7
ag12
ag13
atRp32
ag3
((lp33
g6
ag12
ag8
ag9
atRp34
ag3
((lp35
g7
ag16
ag12
ag8
atRp36
ag3
((lp37
g5
ag6
ag16
ag17
atRp38
ag3
((lp39
g6
ag16
ag12
ag9
atRp40
ag3
((lp41
g5
ag17
ag12
atRp42
ag3
((lp43
g5
ag16
ag12
atRp44
ag3
((lp45
g5
ag6
ag7
ag12
ag8
atRp46
ag3
((lp47
g5
ag6
ag7
atRp48
ag3
((lp49
g12
ag9
ag5
ag7
ag6
ag16
ag17
atRp50
ag3
((lp51
g12
ag9
ag7
ag13
ag6
ag17
ag8
atRp52
ag3
((lp53
g12
ag5
ag7
ag6
ag16
ag17
ag8
atRp54
ag3
((lp55
g5
ag7
ag16
ag12
ag8
atRp56
ag3
((lp57
g12
ag9
ag7
ag6
ag16
ag17
atRp58
ag3
((lp59
g5
ag7
ag12
ag8
ag9
atRp60
ag3
((lp61
g12
ag9
ag5
ag7
ag6
ag17
ag8
atRp62
ag3
((lp63
g9
ag5
ag7
ag13
ag6
ag16
ag8
atRp64
ag3
((lp65
g12
ag9
ag5
ag6
ag16
ag17
atRp66
ag3
((lp67
g5
ag17
ag7
ag13
ag8
atRp68
ag3
((lp69
VB009NU9ZTA
p70
ag12
ag9
ag5
ag7
ag6
ag16
atRp71
ag3
((lp72
g12
ag9
ag5
ag7
ag13
ag6
ag17
ag8
atRp73
ag3
((lp74
g6
ag13
ag9
atRp75
ag3
((lp76
g5
ag17
ag16
ag12
ag9
atRp77
ag3
((lp78
g6
ag7
ag12
ag8
ag9
atRp79
ag3
((lp80
g6
ag17
ag16
ag12
ag8
atRp81
ag3
((lp82
g5
ag6
ag7
ag13
ag8
atRp83
ag3
((lp84
g12
ag7
ag6
ag16
ag17
ag8
atRp85
ag3
((lp86
g5
ag16
ag8
atRp87
ag3
((lp88
g12
ag5
ag7
ag6
ag17
ag8
atRp89
ag3
((lp90
g12
ag13
ag6
ag16
ag17
ag8
atRp91
ag3
((lp92
g12
ag9
ag5
ag7
ag6
ag16
ag17
ag8
atRp93
ag3
((lp94
g6
ag7
ag8
atRp95
ag3
((lp96
g7
ag12
ag13
ag9
atRp97
ag3
((lp98
g5
ag6
ag9
ag12
ag17
atRp99
ag3
((lp100
g12
ag5
ag7
ag6
ag16
ag17
atRp101
ag3
((lp102
g12
ag9
ag5
ag13
ag6
ag17
atRp103
ag3
((lp104
g6
ag7
ag16
ag13
ag9
atRp105
ag3
((lp106
g12
ag9
ag7
ag13
ag16
ag8
atRp107
ag3
((lp108
g5
ag6
ag8
ag9
atRp109
ag3
((lp110
g5
ag12
ag13
ag9
atRp111
ag3
((lp112
g12
ag9
ag5
ag6
ag16
ag8
atRp113
ag3
((lp114
g5
ag6
ag7
ag12
ag17
atRp115
ag3
((lp116
g12
ag9
ag5
ag7
ag6
ag8
atRp117
ag3
((lp118
g5
ag17
ag7
ag12
ag9
atRp119
ag3
((lp120
g12
ag5
ag7
ag13
ag6
ag8
atRp121
ag3
((lp122
g17
ag7
ag12
atRp123
ag3
((lp124
g12
ag9
ag5
ag7
ag6
ag17
atRp125
ag3
((lp126
g12
ag9
ag5
ag7
ag13
ag6
atRp127
ag3
((lp128
g70
ag12
ag9
ag5
ag7
ag17
atRp129
ag3
((lp130
g70
ag12
ag9
ag5
ag7
ag8
atRp131
ag3
((lp132
g6
ag7
ag16
ag8
atRp133
ag3
((lp134
g5
ag7
ag13
ag8
ag9
atRp135
ag3
((lp136
g6
ag17
ag7
ag12
ag13
atRp137
ag3
((lp138
g5
ag7
ag13
ag6
ag16
ag17
ag8
atRp139
ag3
((lp140
g5
ag7
ag16
ag13
ag8
atRp141
ag3
((lp142
g5
ag12
ag13
ag8
ag9
atRp143
ag3
((lp144
g70
ag12
ag9
ag7
ag6
ag16
ag8
atRp145
ag3
((lp146
g6
ag70
ag16
ag12
ag13
atRp147
ag3
((lp148
g5
ag6
ag16
ag9
atRp149
ag3
((lp150
g12
ag5
ag7
ag13
ag16
ag17
ag8
atRp151
ag3
((lp152
g70
ag12
ag9
ag7
ag13
ag6
ag17
ag8
atRp153
ag3
((lp154
g5
ag7
ag12
ag8
atRp155
ag3
((lp156
g12
ag5
ag7
ag6
ag16
ag8
atRp157
ag3
((lp158
g12
ag9
ag5
ag7
ag13
ag6
ag16
atRp159
ag3
((lp160
g5
ag6
ag16
ag12
ag8
atRp161
ag3
((lp162
g6
ag12
ag13
ag8
ag9
atRp163
ag3
((lp164
g5
ag8
ag9
atRp165
ag3
((lp166
g5
ag17
ag7
ag12
ag8
atRp167
ag3
((lp168
g6
ag7
ag8
ag9
atRp169
ag3
((lp170
g12
ag9
ag5
ag7
ag6
ag16
ag8
atRp171
ag3
((lp172
g5
ag6
ag8
ag17
atRp173
ag3
((lp174
g12
ag9
ag7
ag13
ag17
ag8
atRp175
ag3
((lp176
g9
ag5
ag7
ag6
ag16
ag17
atRp177
ag3
((lp178
g12
ag9
ag5
ag7
ag16
ag8
atRp179
ag3
((lp180
g17
ag7
ag16
ag8
ag9
atRp181
ag3
((lp182
g12
ag9
ag5
ag7
ag13
ag8
atRp183
ag3
((lp184
g5
ag6
ag7
ag16
ag12
atRp185
ag3
((lp186
g5
ag7
ag16
ag13
ag9
atRp187
ag3
((lp188
g12
ag9
ag5
ag7
ag16
ag17
ag8
atRp189
ag3
((lp190
g6
ag17
ag7
ag12
atRp191
ag3
((lp192
g70
ag12
ag9
ag7
ag6
ag16
atRp193
ag3
((lp194
g9
ag5
ag7
ag6
ag17
ag8
atRp195
ag3
((lp196
g5
ag6
ag9
atRp197
ag3
((lp198
g6
ag16
ag9
atRp199
ag3
((lp200
g5
ag70
ag7
atRp201
ag3
((lp202
g5
ag6
ag7
ag17
atRp203
ag3
((lp204
g7
ag12
ag8
ag9
atRp205
ag3
((lp206
g12
ag9
ag7
ag6
ag16
ag8
atRp207
ag3
((lp208
g6
ag9
atRp209
ag3
((lp210
g9
ag5
ag6
ag16
ag17
ag8
atRp211
ag3
((lp212
g12
ag9
ag5
ag7
ag6
ag16
atRp213
atRp214
.