(dp0
VB009NU9ZTA
p1
c__builtin__
set
p2
((lp3
VB00C3164HC
p4
aVB00DMXEM74
p5
aVB00C309KAG
p6
aVB00FAZ5P3M
p7
aVB00GTVCQI8
p8
atp9
Rp10
sg4
g2
((lp11
VB00FF17OQW
p12
ag5
ag6
ag7
aVB00C3165R6
p13
aVB00DQD9F18
p14
ag8
atp15
Rp16
sg12
g2
((lp17
g4
ag5
ag6
aVB009RAXT66
p18
ag7
ag14
ag8
atp19
Rp20
sg5
g2
((lp21
g4
ag12
ag6
ag7
ag13
ag14
ag8
atp22
Rp23
sg18
g2
((lp24
g4
ag12
ag5
ag6
ag7
ag8
atp25
Rp26
sg7
g2
((lp27
g4
ag12
ag5
ag6
ag18
ag13
ag14
ag8
atp28
Rp29
sg13
g2
((lp30
g4
ag12
ag5
ag6
ag7
ag14
ag8
atp31
Rp32
sg14
g2
((lp33
g4
ag12
ag5
ag6
ag7
ag13
ag8
atp34
Rp35
sg6
g2
((lp36
g4
ag12
ag5
ag18
ag7
ag13
ag14
ag8
atp37
Rp38
sg8
g2
((lp39
g4
ag12
ag5
ag6
ag7
atp40
Rp41
s.